target datalayout = "e-m:e-p270:32:32-p271:32:32-p272:64:64-i64:64-i128:128-f80:128-n8:16:32:64-S128"
target triple = "x86_64-unknown-linux-gnu"

; Function Attrs: nounwind sspstrong uwtable
define dso_local ptr @qmp_query_memdev(ptr noundef %errp) #0 {
entry:
  %errp.addr = alloca ptr, align 8
  %obj = alloca ptr, align 8
  %list = alloca ptr, align 8
  store ptr %errp, ptr %errp.addr, align 8
  %call = call ptr @object_get_objects_root()
  store ptr %call, ptr %obj, align 8
  store ptr null, ptr %list, align 8
  %0 = load ptr, ptr %obj, align 8
  %call1 = call i32 @object_child_foreach(ptr noundef %0, ptr noundef @query_memdev, ptr noundef %list)
  %1 = load ptr, ptr %list, align 8
  ret ptr %1
}