; Function Attrs: nounwind sspstrong uwtable
define dso_local ptr @qmp_query_memdev(ptr noundef readnone captures(none) %errp) local_unnamed_addr #0 {
entry:
  %list = alloca ptr, align 8
  %call = tail call ptr @object_get_objects_root() #7
  store ptr null, ptr %list, align 8
  %call1 = call i32 @object_child_foreach(ptr noundef %call, ptr noundef nonnull @query_memdev, ptr noundef nonnull %list) #7
  %0 = load ptr, ptr %list, align 8
  ret ptr %0
}